; Function Attrs: nounwind uwtable
define dso_local void @PyErr_SetRaisedException(ptr noundef %0) local_unnamed_addr #0 {
  %2 = tail call align 8 ptr @llvm.threadlocal.address.p0(ptr align 8 @_Py_tss_tstate)
  %3 = load ptr, ptr %2, align 8, !tbaa !25
  %4 = getelementptr inbounds nuw i8, ptr %3, i64 112
  %5 = load ptr, ptr %4, align 8, !tbaa !4
  store ptr %0, ptr %4, align 8, !tbaa !4
  %.not.i.i = icmp eq ptr %5, null
  br i1 %.not.i.i, label %_PyErr_SetRaisedException.exit, label %6

6:                                                ; preds = %1
  %7 = load i32, ptr %5, align 8, !tbaa !20
  %.not.i.i.i = icmp sgt i32 %7, -1
  br i1 %.not.i.i.i, label %8, label %_PyErr_SetRaisedException.exit

8:                                                ; preds = %6
  %9 = add nsw i32 %7, -1
  store i32 %9, ptr %5, align 8, !tbaa !20
  %10 = icmp eq i32 %9, 0
  br i1 %10, label %11, label %_PyErr_SetRaisedException.exit

11:                                               ; preds = %8
  tail call void @_Py_Dealloc(ptr noundef nonnull %5) #17
  br label %_PyErr_SetRaisedException.exit

_PyErr_SetRaisedException.exit:                   ; preds = %1, %6, %8, %11
  ret void
}